target datalayout = "e-m:e-p270:32:32-p271:32:32-p272:64:64-i64:64-i128:128-f80:128-n8:16:32:64-S128"
target triple = "x86_64-pc-linux-gnu"

; Function Attrs: nounwind uwtable
define i32 @MOZ_Z_gzputs(ptr noundef %0, ptr noundef %1) #0 {
  %3 = alloca ptr, align 8
  %4 = alloca ptr, align 8
  %5 = alloca i32, align 4
  %6 = alloca i32, align 4
  store ptr %0, ptr %3, align 8, !tbaa !3
  store ptr %1, ptr %4, align 8, !tbaa !46
  call void @llvm.lifetime.start.p0(i64 4, ptr %5) #10
  call void @llvm.lifetime.start.p0(i64 4, ptr %6) #10
  %7 = load ptr, ptr %4, align 8, !tbaa !46
  %8 = call i64 @strlen(ptr noundef %7) #13
  %9 = trunc i64 %8 to i32
  store i32 %9, ptr %6, align 4, !tbaa !9
  %10 = load ptr, ptr %3, align 8, !tbaa !3
  %11 = load ptr, ptr %4, align 8, !tbaa !46
  %12 = load i32, ptr %6, align 4, !tbaa !9
  %13 = call i32 @MOZ_Z_gzwrite(ptr noundef %10, ptr noundef %11, i32 noundef %12)
  store i32 %13, ptr %5, align 4, !tbaa !9
  %14 = load i32, ptr %5, align 4, !tbaa !9
  %15 = icmp eq i32 %14, 0
  br i1 %15, label %16, label %20

16:                                               ; preds = %2
  %17 = load i32, ptr %6, align 4, !tbaa !9
  %18 = icmp ne i32 %17, 0
  br i1 %18, label %19, label %20

19:                                               ; preds = %16
  br label %22

20:                                               ; preds = %16, %2
  %21 = load i32, ptr %5, align 4, !tbaa !9
  br label %22

22:                                               ; preds = %20, %19
  %23 = phi i32 [ -1, %19 ], [ %21, %20 ]
  call void @llvm.lifetime.end.p0(i64 4, ptr %6) #10
  call void @llvm.lifetime.end.p0(i64 4, ptr %5) #10
  ret i32 %23
}