; Function Attrs: nounwind uwtable
define noundef i32 @MOZ_Z_gzputs(ptr noundef %0, ptr noundef %1) local_unnamed_addr #0 {
  %3 = tail call i64 @strlen(ptr noundef nonnull dereferenceable(1) %1) #17
  %4 = trunc i64 %3 to i32
  %5 = tail call i32 @MOZ_Z_gzwrite(ptr noundef %0, ptr noundef nonnull %1, i32 noundef %4)
  %6 = icmp eq i32 %5, 0
  %7 = icmp ne i32 %4, 0
  %or.cond = and i1 %6, %7
  %8 = select i1 %or.cond, i32 -1, i32 %5
  ret i32 %8
}